target datalayout = "e-m:e-p270:32:32-p271:32:32-p272:64:64-i64:64-i128:128-f80:128-n8:16:32:64-S128"
target triple = "x86_64-unknown-linux-gnu"

%"class.spacer::model_node" = type <{ %class.ref, ptr, %class.ptr_vector, ptr, ptr, i32, i32, i8, [7 x i8] }>
%class.ref = type { ptr }
%class.ptr_vector = type { %class.vector }
%class.vector = type { ptr }

; Function Attrs: mustprogress nounwind uwtable
define linkonce_odr hidden noundef ptr @_ZNK6spacer10model_node6parentEv(ptr noundef nonnull align 8 dereferenceable(49) %this) #5 comdat align 2 {
entry:
  %this.addr = alloca ptr, align 8
  store ptr %this, ptr %this.addr, align 8
  %this1 = load ptr, ptr %this.addr, align 8
  %m_parent = getelementptr inbounds %"class.spacer::model_node", ptr %this1, i32 0, i32 1
  %0 = load ptr, ptr %m_parent, align 8
  ret ptr %0
}

; Function Attrs: mustprogress uwtable
define hidden void @_ZN6spacer10model_node8set_openEv(ptr noundef nonnull align 8 dereferenceable(49) %this) #4 align 2 {
entry:
  %this.addr = alloca ptr, align 8
  %p = alloca ptr, align 8
  store ptr %this, ptr %this.addr, align 8
  %this1 = load ptr, ptr %this.addr, align 8
  %m_closed = getelementptr inbounds %"class.spacer::model_node", ptr %this1, i32 0, i32 7
  store i8 0, ptr %m_closed, align 8
  %call = call noundef ptr @_ZNK6spacer10model_node6parentEv(ptr noundef nonnull align 8 dereferenceable(49) %this1)
  store ptr %call, ptr %p, align 8
  br label %while.cond

while.cond:                                       ; preds = %while.body, %entry
  %0 = load ptr, ptr %p, align 8
  %tobool = icmp ne ptr %0, null
  br i1 %tobool, label %land.rhs, label %land.end

land.rhs:                                         ; preds = %while.cond
  %1 = load ptr, ptr %p, align 8
  %call2 = call noundef zeroext i1 @_ZNK6spacer10model_node9is_closedEv(ptr noundef nonnull align 8 dereferenceable(49) %1)
  br label %land.end

land.end:                                         ; preds = %land.rhs, %while.cond
  %2 = phi i1 [ false, %while.cond ], [ %call2, %land.rhs ]
  br i1 %2, label %while.body, label %while.end

while.body:                                       ; preds = %land.end
  %3 = load ptr, ptr %p, align 8
  %m_closed3 = getelementptr inbounds %"class.spacer::model_node", ptr %3, i32 0, i32 7
  store i8 0, ptr %m_closed3, align 8
  %4 = load ptr, ptr %p, align 8
  %call4 = call noundef ptr @_ZNK6spacer10model_node6parentEv(ptr noundef nonnull align 8 dereferenceable(49) %4)
  store ptr %call4, ptr %p, align 8
  br label %while.cond, !llvm.loop !4

while.end:                                        ; preds = %land.end
  ret void
}

; Function Attrs: mustprogress nounwind uwtable
define linkonce_odr hidden noundef zeroext i1 @_ZNK6spacer10model_node9is_closedEv(ptr noundef nonnull align 8 dereferenceable(49) %this) #5 comdat align 2 {
entry:
  %this.addr = alloca ptr, align 8
  store ptr %this, ptr %this.addr, align 8
  %this1 = load ptr, ptr %this.addr, align 8
  %m_closed = getelementptr inbounds %"class.spacer::model_node", ptr %this1, i32 0, i32 7
  %0 = load i8, ptr %m_closed, align 8
  %tobool = trunc i8 %0 to i1
  ret i1 %tobool
}

; Function Attrs: mustprogress uwtable
define linkonce_odr hidden noundef nonnull align 8 dereferenceable(8) ptr @_ZN6vectorIPN6spacer10model_nodeELb0EjE9push_backERKS2_(ptr noundef nonnull align 8 dereferenceable(8) %this, ptr noundef nonnull align 8 dereferenceable(8) %elem) #4 comdat align 2 {
entry:
  %this.addr = alloca ptr, align 8
  %elem.addr = alloca ptr, align 8
  store ptr %this, ptr %this.addr, align 8
  store ptr %elem, ptr %elem.addr, align 8
  %this1 = load ptr, ptr %this.addr, align 8
  %m_data = getelementptr inbounds %class.vector, ptr %this1, i32 0, i32 0
  %0 = load ptr, ptr %m_data, align 8
  %cmp = icmp eq ptr %0, null
  br i1 %cmp, label %if.then, label %lor.lhs.false

lor.lhs.false:                                    ; preds = %entry
  %m_data2 = getelementptr inbounds %class.vector, ptr %this1, i32 0, i32 0
  %1 = load ptr, ptr %m_data2, align 8
  %arrayidx = getelementptr inbounds i32, ptr %1, i64 -1
  %2 = load i32, ptr %arrayidx, align 4
  %m_data3 = getelementptr inbounds %class.vector, ptr %this1, i32 0, i32 0
  %3 = load ptr, ptr %m_data3, align 8
  %arrayidx4 = getelementptr inbounds i32, ptr %3, i64 -2
  %4 = load i32, ptr %arrayidx4, align 4
  %cmp5 = icmp eq i32 %2, %4
  br i1 %cmp5, label %if.then, label %if.end

if.then:                                          ; preds = %lor.lhs.false, %entry
  call void @_ZN6vectorIPN6spacer10model_nodeELb0EjE13expand_vectorEv(ptr noundef nonnull align 8 dereferenceable(8) %this1)
  br label %if.end

if.end:                                           ; preds = %if.then, %lor.lhs.false
  %m_data6 = getelementptr inbounds %class.vector, ptr %this1, i32 0, i32 0
  %5 = load ptr, ptr %m_data6, align 8
  %m_data7 = getelementptr inbounds %class.vector, ptr %this1, i32 0, i32 0
  %6 = load ptr, ptr %m_data7, align 8
  %arrayidx8 = getelementptr inbounds i32, ptr %6, i64 -1
  %7 = load i32, ptr %arrayidx8, align 4
  %idx.ext = zext i32 %7 to i64
  %add.ptr = getelementptr inbounds ptr, ptr %5, i64 %idx.ext
  %8 = load ptr, ptr %elem.addr, align 8
  %9 = load ptr, ptr %8, align 8
  store ptr %9, ptr %add.ptr, align 8
  %m_data9 = getelementptr inbounds %class.vector, ptr %this1, i32 0, i32 0
  %10 = load ptr, ptr %m_data9, align 8
  %arrayidx10 = getelementptr inbounds i32, ptr %10, i64 -1
  %11 = load i32, ptr %arrayidx10, align 4
  %inc = add i32 %11, 1
  store i32 %inc, ptr %arrayidx10, align 4
  ret ptr %this1
}

; Function Attrs: mustprogress uwtable
define hidden void @_ZN6spacer10model_node9add_childEPS0_(ptr noundef nonnull align 8 dereferenceable(49) %this, ptr noundef %kid) #4 align 2 {
entry:
  %this.addr = alloca ptr, align 8
  %kid.addr = alloca ptr, align 8
  store ptr %this, ptr %this.addr, align 8
  store ptr %kid, ptr %kid.addr, align 8
  %this1 = load ptr, ptr %this.addr, align 8
  %m_children = getelementptr inbounds %"class.spacer::model_node", ptr %this1, i32 0, i32 2
  %call = call noundef nonnull align 8 dereferenceable(8) ptr @_ZN6vectorIPN6spacer10model_nodeELb0EjE9push_backERKS2_(ptr noundef nonnull align 8 dereferenceable(8) %m_children, ptr noundef nonnull align 8 dereferenceable(8) %kid.addr)
  %m_depth = getelementptr inbounds %"class.spacer::model_node", ptr %this1, i32 0, i32 6
  %0 = load i32, ptr %m_depth, align 4
  %add = add i32 %0, 1
  %1 = load ptr, ptr %kid.addr, align 8
  %m_depth2 = getelementptr inbounds %"class.spacer::model_node", ptr %1, i32 0, i32 6
  store i32 %add, ptr %m_depth2, align 4
  %call3 = call noundef zeroext i1 @_ZNK6spacer10model_node9is_closedEv(ptr noundef nonnull align 8 dereferenceable(49) %this1)
  br i1 %call3, label %if.then, label %if.end

if.then:                                          ; preds = %entry
  call void @_ZN6spacer10model_node8set_openEv(ptr noundef nonnull align 8 dereferenceable(49) %this1)
  br label %if.end

if.end:                                           ; preds = %if.then, %entry
  ret void
}