; Function Attrs: mustprogress uwtable
define hidden void @_ZN6spacer10model_node9add_childEPS0_(ptr noundef nonnull align 8 dereferenceable(49) %this, ptr noundef %kid) local_unnamed_addr #3 align 2 {
entry:
  %m_children = getelementptr inbounds i8, ptr %this, i64 16
  %0 = load ptr, ptr %m_children, align 8
  %cmp.i = icmp eq ptr %0, null
  br i1 %cmp.i, label %if.then.i, label %lor.lhs.false.i

lor.lhs.false.i:                                  ; preds = %entry
  %arrayidx.i = getelementptr inbounds i8, ptr %0, i64 -4
  %1 = load i32, ptr %arrayidx.i, align 4
  %arrayidx4.i = getelementptr inbounds i8, ptr %0, i64 -8
  %2 = load i32, ptr %arrayidx4.i, align 4
  %cmp5.i = icmp eq i32 %1, %2
  br i1 %cmp5.i, label %if.then.i, label %_ZN6vectorIPN6spacer10model_nodeELb0EjE9push_backERKS2_.exit

if.then.i:                                        ; preds = %lor.lhs.false.i, %entry
  tail call void @_ZN6vectorIPN6spacer10model_nodeELb0EjE13expand_vectorEv(ptr noundef nonnull align 8 dereferenceable(8) %m_children)
  %.pre.i = load ptr, ptr %m_children, align 8
  %arrayidx8.phi.trans.insert.i = getelementptr inbounds i8, ptr %.pre.i, i64 -4
  %.pre1.i = load i32, ptr %arrayidx8.phi.trans.insert.i, align 4
  br label %_ZN6vectorIPN6spacer10model_nodeELb0EjE9push_backERKS2_.exit

_ZN6vectorIPN6spacer10model_nodeELb0EjE9push_backERKS2_.exit: ; preds = %lor.lhs.false.i, %if.then.i
  %3 = phi i32 [ %.pre1.i, %if.then.i ], [ %1, %lor.lhs.false.i ]
  %4 = phi ptr [ %.pre.i, %if.then.i ], [ %0, %lor.lhs.false.i ]
  %idx.ext.i = zext i32 %3 to i64
  %add.ptr.i = getelementptr inbounds ptr, ptr %4, i64 %idx.ext.i
  store ptr %kid, ptr %add.ptr.i, align 8
  %5 = load ptr, ptr %m_children, align 8
  %arrayidx10.i = getelementptr inbounds i8, ptr %5, i64 -4
  %6 = load i32, ptr %arrayidx10.i, align 4
  %inc.i = add i32 %6, 1
  store i32 %inc.i, ptr %arrayidx10.i, align 4
  %m_depth = getelementptr inbounds i8, ptr %this, i64 44
  %7 = load i32, ptr %m_depth, align 4
  %add = add i32 %7, 1
  %m_depth2 = getelementptr inbounds i8, ptr %kid, i64 44
  store i32 %add, ptr %m_depth2, align 4
  %m_closed.i = getelementptr inbounds i8, ptr %this, i64 48
  %8 = load i8, ptr %m_closed.i, align 8
  %9 = and i8 %8, 1
  %tobool.i.not = icmp eq i8 %9, 0
  br i1 %tobool.i.not, label %if.end, label %if.then

if.then:                                          ; preds = %_ZN6vectorIPN6spacer10model_nodeELb0EjE9push_backERKS2_.exit
  store i8 0, ptr %m_closed.i, align 8
  %p.0.in5.i = getelementptr inbounds i8, ptr %this, i64 8
  %p.06.i = load ptr, ptr %p.0.in5.i, align 8
  %tobool.not7.i = icmp eq ptr %p.06.i, null
  br i1 %tobool.not7.i, label %if.end, label %land.rhs.i

land.rhs.i:                                       ; preds = %if.then, %while.body.i
  %p.08.i = phi ptr [ %p.0.i, %while.body.i ], [ %p.06.i, %if.then ]
  %m_closed.i.i = getelementptr inbounds i8, ptr %p.08.i, i64 48
  %10 = load i8, ptr %m_closed.i.i, align 8
  %11 = and i8 %10, 1
  %tobool.i.not.i = icmp eq i8 %11, 0
  br i1 %tobool.i.not.i, label %if.end, label %while.body.i

while.body.i:                                     ; preds = %land.rhs.i
  store i8 0, ptr %m_closed.i.i, align 8
  %p.0.in.i = getelementptr inbounds i8, ptr %p.08.i, i64 8
  %p.0.i = load ptr, ptr %p.0.in.i, align 8
  %tobool.not.i = icmp eq ptr %p.0.i, null
  br i1 %tobool.not.i, label %if.end, label %land.rhs.i, !llvm.loop !4

if.end:                                           ; preds = %while.body.i, %land.rhs.i, %if.then, %_ZN6vectorIPN6spacer10model_nodeELb0EjE9push_backERKS2_.exit
  ret void
}